target datalayout = "e-m:e-p270:32:32-p271:32:32-p272:64:64-i64:64-i128:128-f80:128-n8:16:32:64-S128"
target triple = "x86_64-pc-linux-gnu"

%struct.expert_field = type { i32, i32 }
%struct._packet_info = type { ptr, ptr, i32, i32, %struct.nstime_t, %struct.nstime_t, %struct.nstime_t, i8, ptr, ptr, ptr, ptr, %struct._address, %struct._address, %struct._address, %struct._address, %struct._address, %struct._address, i32, ptr, i8, [3 x i8], %struct.anon, i32, i32, i32, i32, ptr, i8, ptr, ptr, i16, i16, i32, i32, i16, i32, i32, ptr, ptr, ptr, i8, i8, i16, i16, i16, i32, i16, i16, ptr, ptr, ptr, ptr, ptr, i32, i32 }
%struct.nstime_t = type { i64, i32 }
%struct._address = type { i32, i32, ptr, ptr }
%struct.anon = type { i8, [3 x i8] }

@hf_type = internal global i32 0, align 4
@hf_checksum = internal global i32 0, align 4
@hf_checksum_status = internal global i32 0, align 4
@hf_advint = internal global i32 0, align 4
@hf_numopts = internal global i32 0, align 4
@hf_options = internal global i32 0, align 4
@hf_option = internal global i32 0, align 4
@hf_option_len = internal global i32 0, align 4
@hf_qi = internal global i32 0, align 4
@hf_rv = internal global i32 0, align 4
@hf_option_bytes = internal global i32 0, align 4
@ett_mrdisc = internal global i32 0, align 4
@ett_options = internal global i32 0, align 4
@ei_checksum = internal global %struct.expert_field zeroinitializer, align 4
@.str.35 = private unnamed_addr constant [7 x i8] c"MRDISC\00", align 1
@proto_mrdisc = internal global i32 0, align 4
@mrdisc_options = internal constant [3 x { i32, [4 x i8], ptr }] [{ i32, [4 x i8], ptr } { i32 1, [4 x i8] zeroinitializer, ptr @.str.23 }, { i32, [4 x i8], ptr } { i32 2, [4 x i8] zeroinitializer, ptr @.str.26 }, { i32, [4 x i8], ptr } zeroinitializer], align 16
@.str.43 = private unnamed_addr constant [20 x i8] c"Unknown Type:0x%02x\00", align 1
@.str.44 = private unnamed_addr constant [17 x i8] c"Option: %s == %d\00", align 1
@.str.45 = private unnamed_addr constant [11 x i8] c"unknown %x\00", align 1
@.str.46 = private unnamed_addr constant [16 x i8] c"Option: unknown\00", align 1

; Function Attrs: null_pointer_is_valid sspstrong uwtable
define internal i32 @dissect_mrdisc_mrst(ptr noundef %0, ptr noundef %1, ptr noundef %2, i32 noundef %3) #0 {
  %5 = alloca ptr, align 8
  %6 = alloca ptr, align 8
  %7 = alloca ptr, align 8
  %8 = alloca i32, align 4
  store ptr %0, ptr %5, align 8
  store ptr %1, ptr %6, align 8
  store ptr %2, ptr %7, align 8
  store i32 %3, ptr %8, align 4
  %9 = load i32, ptr %8, align 4
  %10 = add i32 %9, 1
  store i32 %10, ptr %8, align 4
  %11 = load ptr, ptr %7, align 8
  %12 = load ptr, ptr %5, align 8
  %13 = load i32, ptr @hf_checksum, align 4
  %14 = load i32, ptr @hf_checksum_status, align 4
  %15 = load ptr, ptr %6, align 8
  call void @igmp_checksum(ptr noundef %11, ptr noundef %12, i32 noundef %13, i32 noundef %14, ptr noundef @ei_checksum, ptr noundef %15, i32 noundef 0)
  %16 = load i32, ptr %8, align 4
  %17 = add i32 %16, 2
  store i32 %17, ptr %8, align 4
  %18 = load i32, ptr %8, align 4
  ret i32 %18
}

; Function Attrs: null_pointer_is_valid sspstrong uwtable
define internal i32 @dissect_mrdisc_mra(ptr noundef %0, ptr noundef %1, ptr noundef %2, i32 noundef %3) #0 {
  %5 = alloca ptr, align 8
  %6 = alloca ptr, align 8
  %7 = alloca ptr, align 8
  %8 = alloca i32, align 4
  %9 = alloca i16, align 2
  %10 = alloca ptr, align 8
  %11 = alloca ptr, align 8
  %12 = alloca i8, align 1
  %13 = alloca i8, align 1
  %14 = alloca i32, align 4
  store ptr %0, ptr %5, align 8
  store ptr %1, ptr %6, align 8
  store ptr %2, ptr %7, align 8
  store i32 %3, ptr %8, align 4
  call void @llvm.lifetime.start.p0(i64 2, ptr %9) #5
  %15 = load ptr, ptr %7, align 8
  %16 = load i32, ptr @hf_advint, align 4
  %17 = load ptr, ptr %5, align 8
  %18 = load i32, ptr %8, align 4
  %19 = call ptr @proto_tree_add_item(ptr noundef %15, i32 noundef %16, ptr noundef %17, i32 noundef %18, i32 noundef 1, i32 noundef 0)
  %20 = load i32, ptr %8, align 4
  %21 = add i32 %20, 1
  store i32 %21, ptr %8, align 4
  %22 = load ptr, ptr %7, align 8
  %23 = load ptr, ptr %5, align 8
  %24 = load i32, ptr @hf_checksum, align 4
  %25 = load i32, ptr @hf_checksum_status, align 4
  %26 = load ptr, ptr %6, align 8
  call void @igmp_checksum(ptr noundef %22, ptr noundef %23, i32 noundef %24, i32 noundef %25, ptr noundef @ei_checksum, ptr noundef %26, i32 noundef 0)
  %27 = load i32, ptr %8, align 4
  %28 = add i32 %27, 2
  store i32 %28, ptr %8, align 4
  %29 = load i32, ptr %8, align 4
  %30 = add i32 %29, 2
  store i32 %30, ptr %8, align 4
  %31 = load ptr, ptr %5, align 8
  %32 = load i32, ptr %8, align 4
  %33 = call zeroext i16 @tvb_get_ntohs(ptr noundef %31, i32 noundef %32)
  store i16 %33, ptr %9, align 2
  %34 = load ptr, ptr %7, align 8
  %35 = load i32, ptr @hf_numopts, align 4
  %36 = load ptr, ptr %5, align 8
  %37 = load i32, ptr %8, align 4
  %38 = load i16, ptr %9, align 2
  %39 = zext i16 %38 to i32
  %40 = call ptr @proto_tree_add_uint(ptr noundef %34, i32 noundef %35, ptr noundef %36, i32 noundef %37, i32 noundef 2, i32 noundef %39)
  %41 = load i32, ptr %8, align 4
  %42 = add i32 %41, 2
  store i32 %42, ptr %8, align 4
  br label %43

43:                                               ; preds = %136, %4
  %44 = load i16, ptr %9, align 2
  %45 = add i16 %44, -1
  store i16 %45, ptr %9, align 2
  %46 = icmp ne i16 %44, 0
  br i1 %46, label %47, label %141

47:                                               ; preds = %43
  call void @llvm.lifetime.start.p0(i64 8, ptr %10) #5
  call void @llvm.lifetime.start.p0(i64 8, ptr %11) #5
  call void @llvm.lifetime.start.p0(i64 1, ptr %12) #5
  call void @llvm.lifetime.start.p0(i64 1, ptr %13) #5
  call void @llvm.lifetime.start.p0(i64 4, ptr %14) #5
  %48 = load i32, ptr %8, align 4
  store i32 %48, ptr %14, align 4
  %49 = load ptr, ptr %7, align 8
  %50 = load i32, ptr @hf_options, align 4
  %51 = load ptr, ptr %5, align 8
  %52 = load i32, ptr %8, align 4
  %53 = call ptr @proto_tree_add_item(ptr noundef %49, i32 noundef %50, ptr noundef %51, i32 noundef %52, i32 noundef -1, i32 noundef 0)
  store ptr %53, ptr %11, align 8
  %54 = load ptr, ptr %11, align 8
  %55 = load i32, ptr @ett_options, align 4
  %56 = call ptr @proto_item_add_subtree(ptr noundef %54, i32 noundef %55)
  store ptr %56, ptr %10, align 8
  %57 = load ptr, ptr %5, align 8
  %58 = load i32, ptr %8, align 4
  %59 = call zeroext i8 @tvb_get_uint8(ptr noundef %57, i32 noundef %58)
  store i8 %59, ptr %12, align 1
  %60 = load ptr, ptr %10, align 8
  %61 = load i32, ptr @hf_option, align 4
  %62 = load ptr, ptr %5, align 8
  %63 = load i32, ptr %8, align 4
  %64 = load i8, ptr %12, align 1
  %65 = zext i8 %64 to i32
  %66 = call ptr @proto_tree_add_uint(ptr noundef %60, i32 noundef %61, ptr noundef %62, i32 noundef %63, i32 noundef 1, i32 noundef %65)
  %67 = load i32, ptr %8, align 4
  %68 = add i32 %67, 1
  store i32 %68, ptr %8, align 4
  %69 = load ptr, ptr %5, align 8
  %70 = load i32, ptr %8, align 4
  %71 = call zeroext i8 @tvb_get_uint8(ptr noundef %69, i32 noundef %70)
  store i8 %71, ptr %13, align 1
  %72 = load ptr, ptr %10, align 8
  %73 = load i32, ptr @hf_option_len, align 4
  %74 = load ptr, ptr %5, align 8
  %75 = load i32, ptr %8, align 4
  %76 = load i8, ptr %13, align 1
  %77 = zext i8 %76 to i32
  %78 = call ptr @proto_tree_add_uint(ptr noundef %72, i32 noundef %73, ptr noundef %74, i32 noundef %75, i32 noundef 1, i32 noundef %77)
  %79 = load i32, ptr %8, align 4
  %80 = add i32 %79, 1
  store i32 %80, ptr %8, align 4
  %81 = load i8, ptr %12, align 1
  %82 = zext i8 %81 to i32
  switch i32 %82, label %123 [
    i32 1, label %83
    i32 2, label %103
  ]

83:                                               ; preds = %47
  %84 = load ptr, ptr %11, align 8
  %85 = load i8, ptr %12, align 1
  %86 = zext i8 %85 to i32
  %87 = call ptr @val_to_str(i32 noundef %86, ptr noundef @mrdisc_options, ptr noundef @.str.45)
  %88 = load ptr, ptr %5, align 8
  %89 = load i32, ptr %8, align 4
  %90 = call zeroext i16 @tvb_get_ntohs(ptr noundef %88, i32 noundef %89)
  %91 = zext i16 %90 to i32
  call void (ptr, ptr, ...) @proto_item_set_text(ptr noundef %84, ptr noundef @.str.44, ptr noundef %87, i32 noundef %91)
  %92 = load ptr, ptr %10, align 8
  %93 = load i32, ptr @hf_qi, align 4
  %94 = load ptr, ptr %5, align 8
  %95 = load i32, ptr %8, align 4
  %96 = load i8, ptr %13, align 1
  %97 = zext i8 %96 to i32
  %98 = call ptr @proto_tree_add_item(ptr noundef %92, i32 noundef %93, ptr noundef %94, i32 noundef %95, i32 noundef %97, i32 noundef 0)
  %99 = load i8, ptr %13, align 1
  %100 = zext i8 %99 to i32
  %101 = load i32, ptr %8, align 4
  %102 = add i32 %101, %100
  store i32 %102, ptr %8, align 4
  br label %136

103:                                              ; preds = %47
  %104 = load ptr, ptr %11, align 8
  %105 = load i8, ptr %12, align 1
  %106 = zext i8 %105 to i32
  %107 = call ptr @val_to_str(i32 noundef %106, ptr noundef @mrdisc_options, ptr noundef @.str.45)
  %108 = load ptr, ptr %5, align 8
  %109 = load i32, ptr %8, align 4
  %110 = call zeroext i16 @tvb_get_ntohs(ptr noundef %108, i32 noundef %109)
  %111 = zext i16 %110 to i32
  call void (ptr, ptr, ...) @proto_item_set_text(ptr noundef %104, ptr noundef @.str.44, ptr noundef %107, i32 noundef %111)
  %112 = load ptr, ptr %10, align 8
  %113 = load i32, ptr @hf_rv, align 4
  %114 = load ptr, ptr %5, align 8
  %115 = load i32, ptr %8, align 4
  %116 = load i8, ptr %13, align 1
  %117 = zext i8 %116 to i32
  %118 = call ptr @proto_tree_add_item(ptr noundef %112, i32 noundef %113, ptr noundef %114, i32 noundef %115, i32 noundef %117, i32 noundef 0)
  %119 = load i8, ptr %13, align 1
  %120 = zext i8 %119 to i32
  %121 = load i32, ptr %8, align 4
  %122 = add i32 %121, %120
  store i32 %122, ptr %8, align 4
  br label %136

123:                                              ; preds = %47
  %124 = load ptr, ptr %11, align 8
  call void (ptr, ptr, ...) @proto_item_set_text(ptr noundef %124, ptr noundef @.str.46)
  %125 = load ptr, ptr %10, align 8
  %126 = load i32, ptr @hf_option_bytes, align 4
  %127 = load ptr, ptr %5, align 8
  %128 = load i32, ptr %8, align 4
  %129 = load i8, ptr %13, align 1
  %130 = zext i8 %129 to i32
  %131 = call ptr @proto_tree_add_item(ptr noundef %125, i32 noundef %126, ptr noundef %127, i32 noundef %128, i32 noundef %130, i32 noundef 0)
  %132 = load i8, ptr %13, align 1
  %133 = zext i8 %132 to i32
  %134 = load i32, ptr %8, align 4
  %135 = add i32 %134, %133
  store i32 %135, ptr %8, align 4
  br label %136

136:                                              ; preds = %123, %103, %83
  %137 = load ptr, ptr %11, align 8
  %138 = load i32, ptr %8, align 4
  %139 = load i32, ptr %14, align 4
  %140 = sub i32 %138, %139
  call void @proto_item_set_len(ptr noundef %137, i32 noundef %140)
  call void @llvm.lifetime.end.p0(i64 4, ptr %14) #5
  call void @llvm.lifetime.end.p0(i64 1, ptr %13) #5
  call void @llvm.lifetime.end.p0(i64 1, ptr %12) #5
  call void @llvm.lifetime.end.p0(i64 8, ptr %11) #5
  call void @llvm.lifetime.end.p0(i64 8, ptr %10) #5
  br label %43, !llvm.loop !7

141:                                              ; preds = %43
  %142 = load i32, ptr %8, align 4
  call void @llvm.lifetime.end.p0(i64 2, ptr %9) #5
  ret i32 %142
}

; Function Attrs: null_pointer_is_valid sspstrong uwtable
define internal i32 @dissect_mrdisc(ptr noundef %0, ptr noundef %1, ptr noundef %2, ptr noundef %3) #0 {
  %5 = alloca i32, align 4
  %6 = alloca ptr, align 8
  %7 = alloca ptr, align 8
  %8 = alloca ptr, align 8
  %9 = alloca ptr, align 8
  %10 = alloca ptr, align 8
  %11 = alloca ptr, align 8
  %12 = alloca i8, align 1
  %13 = alloca i32, align 4
  %14 = alloca i32, align 4
  %15 = alloca i32, align 4
  %16 = alloca i32, align 4
  %17 = alloca i32, align 4
  %18 = alloca i32, align 4
  store ptr %0, ptr %6, align 8
  store ptr %1, ptr %7, align 8
  store ptr %2, ptr %8, align 8
  store ptr %3, ptr %9, align 8
  call void @llvm.lifetime.start.p0(i64 8, ptr %10) #5
  call void @llvm.lifetime.start.p0(i64 8, ptr %11) #5
  call void @llvm.lifetime.start.p0(i64 1, ptr %12) #5
  call void @llvm.lifetime.start.p0(i64 4, ptr %13) #5
  store i32 0, ptr %13, align 4
  call void @llvm.lifetime.start.p0(i64 4, ptr %14) #5
  call void @llvm.lifetime.start.p0(i64 4, ptr %15) #5
  call void @llvm.lifetime.start.p0(i64 4, ptr %16) #5
  store i32 -536870910, ptr %16, align 4
  %19 = load i32, ptr %16, align 4
  %20 = call i1 @llvm.is.constant.i32(i32 %19)
  br i1 %20, label %21, label %37

21:                                               ; preds = %4
  %22 = load i32, ptr %16, align 4
  %23 = and i32 %22, 255
  %24 = shl i32 %23, 24
  %25 = load i32, ptr %16, align 4
  %26 = and i32 %25, 65280
  %27 = shl i32 %26, 8
  %28 = or i32 %24, %27
  %29 = load i32, ptr %16, align 4
  %30 = and i32 %29, 16711680
  %31 = lshr i32 %30, 8
  %32 = or i32 %28, %31
  %33 = load i32, ptr %16, align 4
  %34 = and i32 %33, -16777216
  %35 = lshr i32 %34, 24
  %36 = or i32 %32, %35
  store i32 %36, ptr %15, align 4
  br label %40

37:                                               ; preds = %4
  %38 = load i32, ptr %16, align 4
  %39 = call i32 asm "bswapl $0", "=r,0,~{dirflag},~{fpsr},~{flags}"(i32 %38) #6, !srcloc !6
  store i32 %39, ptr %15, align 4
  br label %40

40:                                               ; preds = %37, %21
  %41 = load i32, ptr %15, align 4
  store i32 %41, ptr %17, align 4
  call void @llvm.lifetime.end.p0(i64 4, ptr %16) #5
  call void @llvm.lifetime.end.p0(i64 4, ptr %15) #5
  %42 = load i32, ptr %17, align 4
  store i32 %42, ptr %14, align 4
  %43 = load ptr, ptr %7, align 8
  %44 = getelementptr inbounds nuw %struct._packet_info, ptr %43, i32 0, i32 17
  %45 = getelementptr inbounds nuw %struct._address, ptr %44, i32 0, i32 0
  %46 = load i32, ptr %45, align 8
  %47 = icmp ne i32 %46, 2
  br i1 %47, label %55, label %48

48:                                               ; preds = %40
  %49 = load ptr, ptr %7, align 8
  %50 = getelementptr inbounds nuw %struct._packet_info, ptr %49, i32 0, i32 17
  %51 = getelementptr inbounds nuw %struct._address, ptr %50, i32 0, i32 2
  %52 = load ptr, ptr %51, align 8
  %53 = call i32 @memcmp(ptr noundef %52, ptr noundef %14, i64 noundef 4) #7
  %54 = icmp ne i32 %53, 0
  br i1 %54, label %55, label %56

55:                                               ; preds = %48, %40
  store i32 0, ptr %5, align 4
  store i32 1, ptr %18, align 4
  br label %105

56:                                               ; preds = %48
  %57 = load ptr, ptr %7, align 8
  %58 = getelementptr inbounds nuw %struct._packet_info, ptr %57, i32 0, i32 1
  %59 = load ptr, ptr %58, align 8
  call void @col_set_str(ptr noundef %59, i32 noundef 35, ptr noundef @.str.35)
  %60 = load ptr, ptr %7, align 8
  %61 = getelementptr inbounds nuw %struct._packet_info, ptr %60, i32 0, i32 1
  %62 = load ptr, ptr %61, align 8
  call void @col_clear(ptr noundef %62, i32 noundef 25)
  %63 = load ptr, ptr %8, align 8
  %64 = load i32, ptr @proto_mrdisc, align 4
  %65 = load ptr, ptr %6, align 8
  %66 = load i32, ptr %13, align 4
  %67 = call ptr @proto_tree_add_item(ptr noundef %63, i32 noundef %64, ptr noundef %65, i32 noundef %66, i32 noundef 0, i32 noundef 0)
  store ptr %67, ptr %11, align 8
  %68 = load ptr, ptr %11, align 8
  %69 = load i32, ptr @ett_mrdisc, align 4
  %70 = call ptr @proto_item_add_subtree(ptr noundef %68, i32 noundef %69)
  store ptr %70, ptr %10, align 8
  %71 = load ptr, ptr %6, align 8
  %72 = load i32, ptr %13, align 4
  %73 = call zeroext i8 @tvb_get_uint8(ptr noundef %71, i32 noundef %72)
  store i8 %73, ptr %12, align 1
  %74 = load ptr, ptr %7, align 8
  %75 = getelementptr inbounds nuw %struct._packet_info, ptr %74, i32 0, i32 1
  %76 = load ptr, ptr %75, align 8
  %77 = load i8, ptr %12, align 1
  %78 = zext i8 %77 to i32
  %79 = call ptr @val_to_str(i32 noundef %78, ptr noundef @mrdisc_types, ptr noundef @.str.43)
  call void @col_add_str(ptr noundef %76, i32 noundef 25, ptr noundef %79)
  %80 = load ptr, ptr %10, align 8
  %81 = load i32, ptr @hf_type, align 4
  %82 = load ptr, ptr %6, align 8
  %83 = load i32, ptr %13, align 4
  %84 = load i8, ptr %12, align 1
  %85 = zext i8 %84 to i32
  %86 = call ptr @proto_tree_add_uint(ptr noundef %80, i32 noundef %81, ptr noundef %82, i32 noundef %83, i32 noundef 1, i32 noundef %85)
  %87 = load i32, ptr %13, align 4
  %88 = add i32 %87, 1
  store i32 %88, ptr %13, align 4
  %89 = load i8, ptr %12, align 1
  %90 = zext i8 %89 to i32
  switch i32 %90, label %103 [
    i32 36, label %91
    i32 37, label %97
    i32 38, label %97
  ]

91:                                               ; preds = %56
  %92 = load ptr, ptr %6, align 8
  %93 = load ptr, ptr %7, align 8
  %94 = load ptr, ptr %10, align 8
  %95 = load i32, ptr %13, align 4
  %96 = call i32 @dissect_mrdisc_mra(ptr noundef %92, ptr noundef %93, ptr noundef %94, i32 noundef %95)
  store i32 %96, ptr %13, align 4
  br label %103

97:                                               ; preds = %56, %56
  %98 = load ptr, ptr %6, align 8
  %99 = load ptr, ptr %7, align 8
  %100 = load ptr, ptr %10, align 8
  %101 = load i32, ptr %13, align 4
  %102 = call i32 @dissect_mrdisc_mrst(ptr noundef %98, ptr noundef %99, ptr noundef %100, i32 noundef %101)
  store i32 %102, ptr %13, align 4
  br label %103

103:                                              ; preds = %56, %97, %91
  %104 = load i32, ptr %13, align 4
  store i32 %104, ptr %5, align 4
  store i32 1, ptr %18, align 4
  br label %105

105:                                              ; preds = %103, %55
  call void @llvm.lifetime.end.p0(i64 4, ptr %14) #5
  call void @llvm.lifetime.end.p0(i64 4, ptr %13) #5
  call void @llvm.lifetime.end.p0(i64 1, ptr %12) #5
  call void @llvm.lifetime.end.p0(i64 8, ptr %11) #5
  call void @llvm.lifetime.end.p0(i64 8, ptr %10) #5
  %106 = load i32, ptr %5, align 4
  ret i32 %106
}