; Function Attrs: null_pointer_is_valid sspstrong uwtable
define internal noundef i32 @dissect_mrdisc(ptr noundef %0, ptr noundef %1, ptr noundef %2, ptr readnone captures(none) %3) #0 {
  %5 = alloca i32, align 4
  call void @llvm.lifetime.start.p0(i64 4, ptr nonnull %5) #4
  store i32 33554656, ptr %5, align 4
  %6 = getelementptr inbounds nuw i8, ptr %1, i64 232
  %7 = load i32, ptr %6, align 8
  %.not = icmp eq i32 %7, 2
  br i1 %.not, label %8, label %dissect_mrdisc_mra.exit

8:                                                ; preds = %4
  %9 = getelementptr inbounds nuw i8, ptr %1, i64 240
  %10 = load ptr, ptr %9, align 8
  %bcmp = call i32 @bcmp(ptr noundef dereferenceable(4) %10, ptr noundef nonnull dereferenceable(4) %5, i64 4)
  %.not37 = icmp eq i32 %bcmp, 0
  br i1 %.not37, label %11, label %dissect_mrdisc_mra.exit

11:                                               ; preds = %8
  %12 = getelementptr inbounds nuw i8, ptr %1, i64 8
  %13 = load ptr, ptr %12, align 8
  tail call void @col_set_str(ptr noundef %13, i32 noundef 35, ptr noundef nonnull @.str.35)
  %14 = load ptr, ptr %12, align 8
  tail call void @col_clear(ptr noundef %14, i32 noundef 25)
  %15 = load i32, ptr @proto_mrdisc, align 4
  %16 = tail call ptr @proto_tree_add_item(ptr noundef %2, i32 noundef %15, ptr noundef %0, i32 noundef 0, i32 noundef 0, i32 noundef 0)
  %17 = load i32, ptr @ett_mrdisc, align 4
  %18 = tail call ptr @proto_item_add_subtree(ptr noundef %16, i32 noundef %17)
  %19 = tail call zeroext i8 @tvb_get_uint8(ptr noundef %0, i32 noundef 0)
  %20 = load ptr, ptr %12, align 8
  %21 = zext i8 %19 to i32
  %22 = tail call ptr @val_to_str(i32 noundef %21, ptr noundef nonnull @mrdisc_types, ptr noundef nonnull @.str.43)
  tail call void @col_add_str(ptr noundef %20, i32 noundef 25, ptr noundef %22)
  %23 = load i32, ptr @hf_type, align 4
  %24 = tail call ptr @proto_tree_add_uint(ptr noundef %18, i32 noundef %23, ptr noundef %0, i32 noundef 0, i32 noundef 1, i32 noundef %21)
  switch i8 %19, label %dissect_mrdisc_mra.exit [
    i8 36, label %25
    i8 37, label %62
    i8 38, label %62
  ]

25:                                               ; preds = %11
  %26 = load i32, ptr @hf_advint, align 4
  %27 = tail call ptr @proto_tree_add_item(ptr noundef %18, i32 noundef %26, ptr noundef %0, i32 noundef 1, i32 noundef 1, i32 noundef 0)
  %28 = load i32, ptr @hf_checksum, align 4
  %29 = load i32, ptr @hf_checksum_status, align 4
  tail call void @igmp_checksum(ptr noundef %18, ptr noundef %0, i32 noundef %28, i32 noundef %29, ptr noundef nonnull @ei_checksum, ptr noundef %1, i32 noundef 0)
  %30 = tail call zeroext i16 @tvb_get_ntohs(ptr noundef %0, i32 noundef 6)
  %31 = load i32, ptr @hf_numopts, align 4
  %32 = zext i16 %30 to i32
  %33 = tail call ptr @proto_tree_add_uint(ptr noundef %18, i32 noundef %31, ptr noundef %0, i32 noundef 6, i32 noundef 2, i32 noundef %32)
  %.not70.i = icmp eq i16 %30, 0
  br i1 %.not70.i, label %dissect_mrdisc_mra.exit, label %.lr.ph.i

.lr.ph.i:                                         ; preds = %25, %58
  %.in.i = phi i16 [ %34, %58 ], [ %30, %25 ]
  %.071.i = phi i32 [ %.1.i, %58 ], [ 8, %25 ]
  %34 = add i16 %.in.i, -1
  %35 = load i32, ptr @hf_options, align 4
  %36 = tail call ptr @proto_tree_add_item(ptr noundef %18, i32 noundef %35, ptr noundef %0, i32 noundef %.071.i, i32 noundef -1, i32 noundef 0)
  %37 = load i32, ptr @ett_options, align 4
  %38 = tail call ptr @proto_item_add_subtree(ptr noundef %36, i32 noundef %37)
  %39 = tail call zeroext i8 @tvb_get_uint8(ptr noundef %0, i32 noundef %.071.i)
  %40 = load i32, ptr @hf_option, align 4
  %41 = zext i8 %39 to i32
  %42 = tail call ptr @proto_tree_add_uint(ptr noundef %38, i32 noundef %40, ptr noundef %0, i32 noundef %.071.i, i32 noundef 1, i32 noundef %41)
  %43 = add i32 %.071.i, 1
  %44 = tail call zeroext i8 @tvb_get_uint8(ptr noundef %0, i32 noundef %43)
  %45 = load i32, ptr @hf_option_len, align 4
  %46 = zext i8 %44 to i32
  %47 = tail call ptr @proto_tree_add_uint(ptr noundef %38, i32 noundef %45, ptr noundef %0, i32 noundef %43, i32 noundef 1, i32 noundef %46)
  %48 = add i32 %.071.i, 2
  switch i8 %39, label %57 [
    i8 1, label %49
    i8 2, label %53
  ]

49:                                               ; preds = %.lr.ph.i
  %50 = tail call ptr @val_to_str(i32 noundef 1, ptr noundef nonnull @mrdisc_options, ptr noundef nonnull @.str.45)
  %51 = tail call zeroext i16 @tvb_get_ntohs(ptr noundef %0, i32 noundef %48)
  %52 = zext i16 %51 to i32
  tail call void (ptr, ptr, ...) @proto_item_set_text(ptr noundef %36, ptr noundef nonnull @.str.44, ptr noundef %50, i32 noundef %52)
  br label %58

53:                                               ; preds = %.lr.ph.i
  %54 = tail call ptr @val_to_str(i32 noundef 2, ptr noundef nonnull @mrdisc_options, ptr noundef nonnull @.str.45)
  %55 = tail call zeroext i16 @tvb_get_ntohs(ptr noundef %0, i32 noundef %48)
  %56 = zext i16 %55 to i32
  tail call void (ptr, ptr, ...) @proto_item_set_text(ptr noundef %36, ptr noundef nonnull @.str.44, ptr noundef %54, i32 noundef %56)
  br label %58

57:                                               ; preds = %.lr.ph.i
  tail call void (ptr, ptr, ...) @proto_item_set_text(ptr noundef %36, ptr noundef nonnull @.str.46)
  br label %58

58:                                               ; preds = %57, %53, %49
  %hf_option_bytes.sink.i = phi ptr [ @hf_option_bytes, %57 ], [ @hf_rv, %53 ], [ @hf_qi, %49 ]
  %59 = load i32, ptr %hf_option_bytes.sink.i, align 4
  %60 = tail call ptr @proto_tree_add_item(ptr noundef %38, i32 noundef %59, ptr noundef %0, i32 noundef %48, i32 noundef %46, i32 noundef 0)
  %.1.i = add i32 %48, %46
  %61 = sub i32 %.1.i, %.071.i
  tail call void @proto_item_set_len(ptr noundef %36, i32 noundef %61)
  %.not.i = icmp eq i16 %34, 0
  br i1 %.not.i, label %dissect_mrdisc_mra.exit, label %.lr.ph.i, !llvm.loop !6

62:                                               ; preds = %11, %11
  %63 = load i32, ptr @hf_checksum, align 4
  %64 = load i32, ptr @hf_checksum_status, align 4
  tail call void @igmp_checksum(ptr noundef %18, ptr noundef %0, i32 noundef %63, i32 noundef %64, ptr noundef nonnull @ei_checksum, ptr noundef %1, i32 noundef 0)
  br label %dissect_mrdisc_mra.exit

dissect_mrdisc_mra.exit:                          ; preds = %58, %25, %11, %62, %4, %8
  %.0 = phi i32 [ 0, %8 ], [ 0, %4 ], [ 1, %11 ], [ 4, %62 ], [ 8, %25 ], [ %.1.i, %58 ]
  call void @llvm.lifetime.end.p0(i64 4, ptr nonnull %5) #4
  ret i32 %.0
}